target datalayout = "e-m:e-p270:32:32-p271:32:32-p272:64:64-i64:64-i128:128-f80:128-n8:16:32:64-S128"
target triple = "x86_64-pc-linux-gnu"

%struct.sacct_parameters_t = type { ptr, i32, ptr, i8, i32, i8, i8, ptr, i32, i32, i8, i32, i32, i32, i8, ptr, ptr }
%struct.slurmdb_job_cond_t = type { ptr, ptr, ptr, ptr, i32, i32, i32, i32, i32, ptr, ptr, ptr, i32, i32, ptr, ptr, ptr, ptr, ptr, ptr, ptr, i32, i32, i64, i64, ptr, ptr, ptr }

@params = dso_local global %struct.sacct_parameters_t zeroinitializer, align 8
@print_fields_list = external global ptr, align 8
@stderr = external global ptr, align 8
@.str.119 = private unnamed_addr constant [34 x i8] c"sacct bug: should never get here\0A\00", align 1

; Function Attrs: nounwind uwtable
define dso_local i32 @main(i32 noundef %0, ptr noundef %1) #1 {
  %3 = alloca i32, align 4
  %4 = alloca i32, align 4
  %5 = alloca ptr, align 8
  %6 = alloca i32, align 4
  %7 = alloca i32, align 4
  store i32 0, ptr %3, align 4
  store i32 %0, ptr %4, align 4
  store ptr %1, ptr %5, align 8
  call void @llvm.lifetime.start.p0(i64 4, ptr %6) #5
  call void @llvm.lifetime.start.p0(i64 4, ptr %7) #5
  store i32 0, ptr %7, align 4
  call void @slurm_init(ptr noundef null)
  call void @sacct_init()
  %8 = load i32, ptr %4, align 4
  %9 = load ptr, ptr %5, align 8
  call void @parse_command_line(i32 noundef %8, ptr noundef %9)
  %10 = load i32, ptr getelementptr inbounds nuw (%struct.sacct_parameters_t, ptr @params, i32 0, i32 9), align 4
  %11 = icmp ne i32 %10, 0
  br i1 %11, label %12, label %13

12:                                               ; preds = %2
  store i32 1, ptr %6, align 4
  br label %14

13:                                               ; preds = %2
  store i32 0, ptr %6, align 4
  br label %14

14:                                               ; preds = %13, %12
  %15 = load i32, ptr %6, align 4
  switch i32 %15, label %48 [
    i32 0, label %16
    i32 1, label %47
  ]

16:                                               ; preds = %14
  %17 = load ptr, ptr getelementptr inbounds nuw (%struct.sacct_parameters_t, ptr @params, i32 0, i32 15), align 8
  %18 = icmp ne ptr %17, null
  br i1 %18, label %35, label %19

19:                                               ; preds = %16
  %20 = load ptr, ptr getelementptr inbounds nuw (%struct.sacct_parameters_t, ptr @params, i32 0, i32 2), align 8
  %21 = getelementptr inbounds nuw %struct.slurmdb_job_cond_t, ptr %20, i32 0, i32 8
  %22 = load i32, ptr %21, align 8
  %23 = zext i32 %22 to i64
  %24 = and i64 %23, 256
  %25 = icmp ne i64 %24, 0
  br i1 %25, label %35, label %26

26:                                               ; preds = %19
  %27 = load ptr, ptr getelementptr inbounds nuw (%struct.sacct_parameters_t, ptr @params, i32 0, i32 2), align 8
  %28 = getelementptr inbounds nuw %struct.slurmdb_job_cond_t, ptr %27, i32 0, i32 8
  %29 = load i32, ptr %28, align 8
  %30 = zext i32 %29 to i64
  %31 = and i64 %30, 512
  %32 = icmp ne i64 %31, 0
  br i1 %32, label %35, label %33

33:                                               ; preds = %26
  %34 = load ptr, ptr @print_fields_list, align 8
  call void @print_fields_header(ptr noundef %34)
  br label %35

35:                                               ; preds = %33, %26, %19, %16
  %36 = call i32 @get_data()
  %37 = icmp eq i32 %36, -1
  br i1 %37, label %38, label %39

38:                                               ; preds = %35
  call void @exit(i32 noundef 1) #6
  unreachable

39:                                               ; preds = %35
  %40 = load i32, ptr getelementptr inbounds nuw (%struct.sacct_parameters_t, ptr @params, i32 0, i32 4), align 4
  %41 = icmp ne i32 %40, 0
  br i1 %41, label %42, label %43

42:                                               ; preds = %39
  call void @do_list_completion()
  br label %46

43:                                               ; preds = %39
  %44 = load i32, ptr %4, align 4
  %45 = load ptr, ptr %5, align 8
  call void @do_list(i32 noundef %44, ptr noundef %45)
  br label %46

46:                                               ; preds = %43, %42
  br label %51

47:                                               ; preds = %14
  call void @do_help()
  br label %51

48:                                               ; preds = %14
  %49 = load ptr, ptr @stderr, align 8
  %50 = call i32 (ptr, ptr, ...) @fprintf(ptr noundef %49, ptr noundef @.str.119) #5
  call void @sacct_fini()
  call void @exit(i32 noundef 2) #6
  unreachable

51:                                               ; preds = %47, %46
  call void @sacct_fini()
  %52 = load i32, ptr %7, align 4
  call void @llvm.lifetime.end.p0(i64 4, ptr %7) #5
  call void @llvm.lifetime.end.p0(i64 4, ptr %6) #5
  ret i32 %52
}