; Function Attrs: nounwind uwtable
define dso_local noundef i32 @main(i32 noundef %0, ptr noundef %1) local_unnamed_addr #1 {
  tail call void @slurm_init(ptr noundef null) #3
  tail call void @sacct_init() #3
  tail call void @parse_command_line(i32 noundef %0, ptr noundef %1) #3
  %3 = load i32, ptr getelementptr inbounds nuw (i8, ptr @params, i64 52), align 4
  %.not.not = icmp eq i32 %3, 0
  br i1 %.not.not, label %4, label %21

4:                                                ; preds = %2
  %5 = load ptr, ptr getelementptr inbounds nuw (i8, ptr @params, i64 80), align 8
  %.not5 = icmp eq ptr %5, null
  br i1 %.not5, label %6, label %13

6:                                                ; preds = %4
  %7 = load ptr, ptr getelementptr inbounds nuw (i8, ptr @params, i64 16), align 8
  %8 = getelementptr inbounds nuw i8, ptr %7, i64 48
  %9 = load i32, ptr %8, align 8
  %10 = and i32 %9, 768
  %or.cond = icmp eq i32 %10, 0
  br i1 %or.cond, label %11, label %13

11:                                               ; preds = %6
  %12 = load ptr, ptr @print_fields_list, align 8
  tail call void @print_fields_header(ptr noundef %12) #3
  br label %13

13:                                               ; preds = %11, %6, %4
  %14 = tail call i32 @get_data() #3
  %15 = icmp eq i32 %14, -1
  br i1 %15, label %16, label %17

16:                                               ; preds = %13
  tail call void @exit(i32 noundef 1) #4
  unreachable

17:                                               ; preds = %13
  %18 = load i32, ptr getelementptr inbounds nuw (i8, ptr @params, i64 28), align 4
  %.not8 = icmp eq i32 %18, 0
  br i1 %.not8, label %20, label %19

19:                                               ; preds = %17
  tail call void @do_list_completion() #3
  br label %22

20:                                               ; preds = %17
  tail call void @do_list(i32 noundef %0, ptr noundef %1) #3
  br label %22

21:                                               ; preds = %2
  tail call void @do_help() #3
  br label %22

22:                                               ; preds = %19, %20, %21
  tail call void @sacct_fini() #3
  ret i32 0
}